target datalayout = "e-m:e-p270:32:32-p271:32:32-p272:64:64-i64:64-i128:128-f80:128-n8:16:32:64-S128"
target triple = "x86_64-pc-linux-gnu"

%union.pthread_mutex_t = type { %struct.__pthread_mutex_s }
%struct.__pthread_mutex_s = type { i32, i32, i32, i32, i32, i16, i16, %struct.__pthread_internal_list }
%struct.__pthread_internal_list = type { ptr, ptr }
%union.pthread_cond_t = type { %struct.__pthread_cond_s }
%struct.__pthread_cond_s = type { %union.__atomic_wide_counter, %union.__atomic_wide_counter, [2 x i32], [2 x i32], i32, i32, [2 x i32] }
%union.__atomic_wide_counter = type { i64 }

@.str = private unnamed_addr constant [10 x i8] c"fed_mgr.c\00", align 1
@.str.1 = private unnamed_addr constant [29 x i8] c"%s: pthread_mutex_lock(): %m\00", align 1
@.str.2 = private unnamed_addr constant [31 x i8] c"%s: pthread_mutex_unlock(): %m\00", align 1
@.str.73 = private unnamed_addr constant [39 x i8] c"%s:%d %s: pthread_cond_broadcast(): %m\00", align 1
@job_watch_thread_running = internal global i8 0, align 1
@job_watch_mutex = internal global %union.pthread_mutex_t zeroinitializer, align 8
@stop_job_watch_thread = internal global i8 0, align 1
@job_watch_cond = internal global %union.pthread_cond_t zeroinitializer, align 8
@__func__._remove_job_watch_thread = private unnamed_addr constant [25 x i8] c"_remove_job_watch_thread\00", align 1

; Function Attrs: nounwind uwtable
define internal void @_remove_job_watch_thread() #0 {
  %1 = alloca i32, align 4
  %2 = alloca i32, align 4
  %3 = alloca i32, align 4
  %4 = load i8, ptr @job_watch_thread_running, align 1, !range !11, !noundef !12
  %5 = trunc i8 %4 to i1
  br i1 %5, label %6, label %35

6:                                                ; preds = %0
  br label %7

7:                                                ; preds = %6
  call void @llvm.lifetime.start.p0(i64 4, ptr %1) #9
  %8 = call i32 @pthread_mutex_lock(ptr noundef @job_watch_mutex) #9
  store i32 %8, ptr %1, align 4
  %9 = load i32, ptr %1, align 4
  %10 = icmp ne i32 %9, 0
  br i1 %10, label %11, label %14

11:                                               ; preds = %7
  %12 = load i32, ptr %1, align 4
  %13 = call ptr @__errno_location() #10
  store i32 %12, ptr %13, align 4
  call void (ptr, ...) @fatal_abort(ptr noundef @.str.1, ptr noundef @__func__._remove_job_watch_thread) #11
  unreachable

14:                                               ; preds = %7
  call void @llvm.lifetime.end.p0(i64 4, ptr %1) #9
  br label %15

15:                                               ; preds = %14
  store i8 1, ptr @stop_job_watch_thread, align 1
  br label %16

16:                                               ; preds = %15
  call void @llvm.lifetime.start.p0(i64 4, ptr %2) #9
  %17 = call i32 @pthread_cond_broadcast(ptr noundef @job_watch_cond) #9
  store i32 %17, ptr %2, align 4
  %18 = load i32, ptr %2, align 4
  %19 = icmp ne i32 %18, 0
  br i1 %19, label %20, label %24

20:                                               ; preds = %16
  %21 = load i32, ptr %2, align 4
  %22 = call ptr @__errno_location() #10
  store i32 %21, ptr %22, align 4
  %23 = call i32 (ptr, ...) @error(ptr noundef @.str.73, ptr noundef @.str, i32 noundef 700, ptr noundef @__func__._remove_job_watch_thread)
  br label %24

24:                                               ; preds = %20, %16
  call void @llvm.lifetime.end.p0(i64 4, ptr %2) #9
  br label %25

25:                                               ; preds = %24
  br label %26

26:                                               ; preds = %25
  call void @llvm.lifetime.start.p0(i64 4, ptr %3) #9
  %27 = call i32 @pthread_mutex_unlock(ptr noundef @job_watch_mutex) #9
  store i32 %27, ptr %3, align 4
  %28 = load i32, ptr %3, align 4
  %29 = icmp ne i32 %28, 0
  br i1 %29, label %30, label %33

30:                                               ; preds = %26
  %31 = load i32, ptr %3, align 4
  %32 = call ptr @__errno_location() #10
  store i32 %31, ptr %32, align 4
  call void (ptr, ...) @fatal_abort(ptr noundef @.str.2, ptr noundef @__func__._remove_job_watch_thread) #11
  unreachable

33:                                               ; preds = %26
  call void @llvm.lifetime.end.p0(i64 4, ptr %3) #9
  br label %34

34:                                               ; preds = %33
  br label %35

35:                                               ; preds = %34, %0
  ret void
}