; Function Attrs: nounwind uwtable
define internal fastcc void @_remove_job_watch_thread() unnamed_addr #0 {
  %.b8 = load i1, ptr @job_watch_thread_running, align 1
  br i1 %.b8, label %1, label %14

1:                                                ; preds = %0
  %2 = tail call i32 @pthread_mutex_lock(ptr noundef nonnull @job_watch_mutex) #16
  %.not = icmp eq i32 %2, 0
  br i1 %.not, label %5, label %3

3:                                                ; preds = %1
  %4 = tail call ptr @__errno_location() #17
  store i32 %2, ptr %4, align 4
  tail call void (ptr, ...) @fatal_abort(ptr noundef nonnull @.str.1, ptr noundef nonnull @__func__._remove_job_watch_thread) #18
  unreachable

5:                                                ; preds = %1
  store i1 true, ptr @stop_job_watch_thread, align 1
  %6 = tail call i32 @pthread_cond_broadcast(ptr noundef nonnull @job_watch_cond) #16
  %.not9 = icmp eq i32 %6, 0
  br i1 %.not9, label %10, label %7

7:                                                ; preds = %5
  %8 = tail call ptr @__errno_location() #17
  store i32 %6, ptr %8, align 4
  %9 = tail call i32 (ptr, ...) @error(ptr noundef nonnull @.str.73, ptr noundef nonnull @.str, i32 noundef 700, ptr noundef nonnull @__func__._remove_job_watch_thread) #16
  br label %10

10:                                               ; preds = %7, %5
  %11 = tail call i32 @pthread_mutex_unlock(ptr noundef nonnull @job_watch_mutex) #16
  %.not10 = icmp eq i32 %11, 0
  br i1 %.not10, label %14, label %12

12:                                               ; preds = %10
  %13 = tail call ptr @__errno_location() #17
  store i32 %11, ptr %13, align 4
  tail call void (ptr, ...) @fatal_abort(ptr noundef nonnull @.str.2, ptr noundef nonnull @__func__._remove_job_watch_thread) #18
  unreachable

14:                                               ; preds = %10, %0
  ret void
}